target datalayout = "e-m:e-p270:32:32-p271:32:32-p272:64:64-i64:64-i128:128-f80:128-n8:16:32:64-S128"
target triple = "x86_64-pc-linux-gnu"

%"class.toku::txnid_set" = type { %"class.toku::omt" }
%"class.toku::omt" = type { i8, i32, %union.anon }
%union.anon = type { %"struct.toku::omt<unsigned long>::omt_array" }
%"struct.toku::omt<unsigned long>::omt_array" = type { i32, i32, ptr }
%"struct.toku::omt<unsigned long>::omt_tree" = type { %"class.toku::omt_internal::subtree_templated", i32, ptr }
%"class.toku::omt_internal::subtree_templated" = type { i32 }
%"class.toku::omt_internal::omt_node_templated" = type <{ i64, i32, %"class.toku::omt_internal::subtree_templated", %"class.toku::omt_internal::subtree_templated", [4 x i8] }>

; Function Attrs: inlinehint mustprogress uwtable
define linkonce_odr noundef zeroext i1 @_ZNK4toku12omt_internal17subtree_templatedILb0EE7is_nullEv(ptr noundef nonnull align 4 dereferenceable(4) %0) #5 comdat align 2 {
  %2 = alloca ptr, align 8
  store ptr %0, ptr %2, align 8, !tbaa !26
  %3 = load ptr, ptr %2, align 8
  %4 = call noundef i32 @_ZNK4toku12omt_internal17subtree_templatedILb0EE9get_indexEv(ptr noundef nonnull align 4 dereferenceable(4) %3)
  %5 = icmp eq i32 -1, %4
  ret i1 %5
}

; Function Attrs: mustprogress nounwind uwtable
define linkonce_odr void @_ZN4toku3omtImmLb0EE7copyoutEPmPKNS_12omt_internal18omt_node_templatedImLb0EEE(ptr noundef nonnull %0, ptr noundef nonnull %1) #0 comdat align 2 {
  %3 = alloca ptr, align 8
  %4 = alloca ptr, align 8
  store ptr %0, ptr %3, align 8, !tbaa !4
  store ptr %1, ptr %4, align 8, !tbaa !32
  %5 = load ptr, ptr %4, align 8, !tbaa !32
  %6 = getelementptr inbounds nuw %"class.toku::omt_internal::omt_node_templated", ptr %5, i32 0, i32 0
  %7 = load i64, ptr %6, align 8, !tbaa !36
  %8 = load ptr, ptr %3, align 8, !tbaa !4
  store i64 %7, ptr %8, align 8, !tbaa !9
  ret void
}

; Function Attrs: inlinehint mustprogress nounwind uwtable
define linkonce_odr noundef i32 @_ZNK4toku12omt_internal17subtree_templatedILb0EE9get_indexEv(ptr noundef nonnull align 4 dereferenceable(4) %0) #4 comdat align 2 {
  %2 = alloca ptr, align 8
  store ptr %0, ptr %2, align 8, !tbaa !26
  %3 = load ptr, ptr %2, align 8
  %4 = getelementptr inbounds nuw %"class.toku::omt_internal::subtree_templated", ptr %3, i32 0, i32 0
  %5 = load i32, ptr %4, align 4, !tbaa !28
  ret i32 %5
}

; Function Attrs: mustprogress nounwind uwtable
define linkonce_odr void @_ZN4toku3omtImmLb0EE7copyoutEPmPKm(ptr noundef nonnull %0, ptr noundef nonnull %1) #0 comdat align 2 {
  %3 = alloca ptr, align 8
  %4 = alloca ptr, align 8
  store ptr %0, ptr %3, align 8, !tbaa !4
  store ptr %1, ptr %4, align 8, !tbaa !4
  %5 = load ptr, ptr %4, align 8, !tbaa !4
  %6 = load i64, ptr %5, align 8, !tbaa !9
  %7 = load ptr, ptr %3, align 8, !tbaa !4
  store i64 %6, ptr %7, align 8, !tbaa !9
  ret void
}

; Function Attrs: mustprogress uwtable
define linkonce_odr noundef i32 @_ZNK4toku3omtImmLb0EE7nweightERKNS_12omt_internal17subtree_templatedILb0EEE(ptr noundef nonnull align 8 dereferenceable(24) %0, ptr noundef nonnull align 4 dereferenceable(4) %1) #1 comdat align 2 {
  %3 = alloca i32, align 4
  %4 = alloca ptr, align 8
  %5 = alloca ptr, align 8
  store ptr %0, ptr %4, align 8, !tbaa !13
  store ptr %1, ptr %5, align 8, !tbaa !26
  %6 = load ptr, ptr %4, align 8
  %7 = load ptr, ptr %5, align 8, !tbaa !26
  %8 = call noundef zeroext i1 @_ZNK4toku12omt_internal17subtree_templatedILb0EE7is_nullEv(ptr noundef nonnull align 4 dereferenceable(4) %7)
  br i1 %8, label %9, label %10

9:                                                ; preds = %2
  store i32 0, ptr %3, align 4
  br label %20

10:                                               ; preds = %2
  %11 = getelementptr inbounds nuw %"class.toku::omt", ptr %6, i32 0, i32 2
  %12 = getelementptr inbounds nuw %"struct.toku::omt<unsigned long>::omt_tree", ptr %11, i32 0, i32 2
  %13 = load ptr, ptr %12, align 8, !tbaa !22
  %14 = load ptr, ptr %5, align 8, !tbaa !26
  %15 = call noundef i32 @_ZNK4toku12omt_internal17subtree_templatedILb0EE9get_indexEv(ptr noundef nonnull align 4 dereferenceable(4) %14)
  %16 = zext i32 %15 to i64
  %17 = getelementptr inbounds nuw %"class.toku::omt_internal::omt_node_templated", ptr %13, i64 %16
  %18 = getelementptr inbounds nuw %"class.toku::omt_internal::omt_node_templated", ptr %17, i32 0, i32 1
  %19 = load i32, ptr %18, align 8, !tbaa !34
  store i32 %19, ptr %3, align 4
  br label %20

20:                                               ; preds = %10, %9
  %21 = load i32, ptr %3, align 4
  ret i32 %21
}

; Function Attrs: mustprogress uwtable
define linkonce_odr void @_ZNK4toku3omtImmLb0EE14fetch_internalERKNS_12omt_internal17subtree_templatedILb0EEEjPm(ptr noundef nonnull align 8 dereferenceable(24) %0, ptr noundef nonnull align 4 dereferenceable(4) %1, i32 noundef %2, ptr noundef %3) #1 comdat align 2 {
  %5 = alloca ptr, align 8
  %6 = alloca ptr, align 8
  %7 = alloca i32, align 4
  %8 = alloca ptr, align 8
  %9 = alloca ptr, align 8
  %10 = alloca i32, align 4
  store ptr %0, ptr %5, align 8, !tbaa !13
  store ptr %1, ptr %6, align 8, !tbaa !26
  store i32 %2, ptr %7, align 4, !tbaa !23
  store ptr %3, ptr %8, align 8, !tbaa !4
  %11 = load ptr, ptr %5, align 8
  call void @llvm.lifetime.start.p0(i64 8, ptr %9) #7
  %12 = getelementptr inbounds nuw %"class.toku::omt", ptr %11, i32 0, i32 2
  %13 = getelementptr inbounds nuw %"struct.toku::omt<unsigned long>::omt_tree", ptr %12, i32 0, i32 2
  %14 = load ptr, ptr %13, align 8, !tbaa !22
  %15 = load ptr, ptr %6, align 8, !tbaa !26
  %16 = call noundef i32 @_ZNK4toku12omt_internal17subtree_templatedILb0EE9get_indexEv(ptr noundef nonnull align 4 dereferenceable(4) %15)
  %17 = zext i32 %16 to i64
  %18 = getelementptr inbounds nuw %"class.toku::omt_internal::omt_node_templated", ptr %14, i64 %17
  store ptr %18, ptr %9, align 8, !tbaa !32
  call void @llvm.lifetime.start.p0(i64 4, ptr %10) #7
  %19 = load ptr, ptr %9, align 8, !tbaa !32
  %20 = getelementptr inbounds nuw %"class.toku::omt_internal::omt_node_templated", ptr %19, i32 0, i32 2
  %21 = call noundef i32 @_ZNK4toku3omtImmLb0EE7nweightERKNS_12omt_internal17subtree_templatedILb0EEE(ptr noundef nonnull align 8 dereferenceable(24) %11, ptr noundef nonnull align 4 dereferenceable(4) %20)
  store i32 %21, ptr %10, align 4, !tbaa !23
  %22 = load i32, ptr %7, align 4, !tbaa !23
  %23 = load i32, ptr %10, align 4, !tbaa !23
  %24 = icmp ult i32 %22, %23
  br i1 %24, label %25, label %30

25:                                               ; preds = %4
  %26 = load ptr, ptr %9, align 8, !tbaa !32
  %27 = getelementptr inbounds nuw %"class.toku::omt_internal::omt_node_templated", ptr %26, i32 0, i32 2
  %28 = load i32, ptr %7, align 4, !tbaa !23
  %29 = load ptr, ptr %8, align 8, !tbaa !4
  call void @_ZNK4toku3omtImmLb0EE14fetch_internalERKNS_12omt_internal17subtree_templatedILb0EEEjPm(ptr noundef nonnull align 8 dereferenceable(24) %11, ptr noundef nonnull align 4 dereferenceable(4) %27, i32 noundef %28, ptr noundef %29)
  br label %50

30:                                               ; preds = %4
  %31 = load i32, ptr %7, align 4, !tbaa !23
  %32 = load i32, ptr %10, align 4, !tbaa !23
  %33 = icmp eq i32 %31, %32
  br i1 %33, label %34, label %41

34:                                               ; preds = %30
  %35 = load ptr, ptr %8, align 8, !tbaa !4
  %36 = icmp ne ptr %35, null
  br i1 %36, label %37, label %40

37:                                               ; preds = %34
  %38 = load ptr, ptr %8, align 8, !tbaa !4
  %39 = load ptr, ptr %9, align 8, !tbaa !32
  call void @_ZN4toku3omtImmLb0EE7copyoutEPmPKNS_12omt_internal18omt_node_templatedImLb0EEE(ptr noundef %38, ptr noundef %39)
  br label %40

40:                                               ; preds = %37, %34
  br label %49

41:                                               ; preds = %30
  %42 = load ptr, ptr %9, align 8, !tbaa !32
  %43 = getelementptr inbounds nuw %"class.toku::omt_internal::omt_node_templated", ptr %42, i32 0, i32 3
  %44 = load i32, ptr %7, align 4, !tbaa !23
  %45 = load i32, ptr %10, align 4, !tbaa !23
  %46 = sub i32 %44, %45
  %47 = sub i32 %46, 1
  %48 = load ptr, ptr %8, align 8, !tbaa !4
  call void @_ZNK4toku3omtImmLb0EE14fetch_internalERKNS_12omt_internal17subtree_templatedILb0EEEjPm(ptr noundef nonnull align 8 dereferenceable(24) %11, ptr noundef nonnull align 4 dereferenceable(4) %43, i32 noundef %47, ptr noundef %48)
  br label %49

49:                                               ; preds = %41, %40
  br label %50

50:                                               ; preds = %49, %25
  call void @llvm.lifetime.end.p0(i64 4, ptr %10) #7
  call void @llvm.lifetime.end.p0(i64 8, ptr %9) #7
  ret void
}

; Function Attrs: mustprogress nounwind uwtable
define linkonce_odr void @_ZNK4toku3omtImmLb0EE20fetch_internal_arrayEjPm(ptr noundef nonnull align 8 dereferenceable(24) %0, i32 noundef %1, ptr noundef %2) #0 comdat align 2 {
  %4 = alloca ptr, align 8
  %5 = alloca i32, align 4
  %6 = alloca ptr, align 8
  store ptr %0, ptr %4, align 8, !tbaa !13
  store i32 %1, ptr %5, align 4, !tbaa !23
  store ptr %2, ptr %6, align 8, !tbaa !4
  %7 = load ptr, ptr %4, align 8
  %8 = load ptr, ptr %6, align 8, !tbaa !4
  %9 = icmp ne ptr %8, null
  br i1 %9, label %10, label %22

10:                                               ; preds = %3
  %11 = load ptr, ptr %6, align 8, !tbaa !4
  %12 = getelementptr inbounds nuw %"class.toku::omt", ptr %7, i32 0, i32 2
  %13 = getelementptr inbounds nuw %"struct.toku::omt<unsigned long>::omt_array", ptr %12, i32 0, i32 2
  %14 = load ptr, ptr %13, align 8, !tbaa !22
  %15 = getelementptr inbounds nuw %"class.toku::omt", ptr %7, i32 0, i32 2
  %16 = getelementptr inbounds nuw %"struct.toku::omt<unsigned long>::omt_array", ptr %15, i32 0, i32 0
  %17 = load i32, ptr %16, align 8, !tbaa !22
  %18 = load i32, ptr %5, align 4, !tbaa !23
  %19 = add i32 %17, %18
  %20 = zext i32 %19 to i64
  %21 = getelementptr inbounds nuw i64, ptr %14, i64 %20
  call void @_ZN4toku3omtImmLb0EE7copyoutEPmPKm(ptr noundef %11, ptr noundef %21)
  br label %22

22:                                               ; preds = %10, %3
  ret void
}

; Function Attrs: mustprogress uwtable
define linkonce_odr noundef i32 @_ZNK4toku3omtImmLb0EE4sizeEv(ptr noundef nonnull align 8 dereferenceable(24) %0) #1 comdat align 2 {
  %2 = alloca i32, align 4
  %3 = alloca ptr, align 8
  store ptr %0, ptr %3, align 8, !tbaa !13
  %4 = load ptr, ptr %3, align 8
  %5 = getelementptr inbounds nuw %"class.toku::omt", ptr %4, i32 0, i32 0
  %6 = load i8, ptr %5, align 8, !tbaa !19, !range !20, !noundef !21
  %7 = trunc i8 %6 to i1
  br i1 %7, label %8, label %12

8:                                                ; preds = %1
  %9 = getelementptr inbounds nuw %"class.toku::omt", ptr %4, i32 0, i32 2
  %10 = getelementptr inbounds nuw %"struct.toku::omt<unsigned long>::omt_array", ptr %9, i32 0, i32 1
  %11 = load i32, ptr %10, align 4, !tbaa !22
  store i32 %11, ptr %2, align 4
  br label %16

12:                                               ; preds = %1
  %13 = getelementptr inbounds nuw %"class.toku::omt", ptr %4, i32 0, i32 2
  %14 = getelementptr inbounds nuw %"struct.toku::omt<unsigned long>::omt_tree", ptr %13, i32 0, i32 0
  %15 = call noundef i32 @_ZNK4toku3omtImmLb0EE7nweightERKNS_12omt_internal17subtree_templatedILb0EEE(ptr noundef nonnull align 8 dereferenceable(24) %4, ptr noundef nonnull align 4 dereferenceable(4) %14)
  store i32 %15, ptr %2, align 4
  br label %16

16:                                               ; preds = %12, %8
  %17 = load i32, ptr %2, align 4
  ret i32 %17
}

; Function Attrs: mustprogress uwtable
define linkonce_odr noundef i32 @_ZNK4toku3omtImmLb0EE5fetchEjPm(ptr noundef nonnull align 8 dereferenceable(24) %0, i32 noundef %1, ptr noundef %2) #1 comdat align 2 {
  %4 = alloca i32, align 4
  %5 = alloca ptr, align 8
  %6 = alloca i32, align 4
  %7 = alloca ptr, align 8
  store ptr %0, ptr %5, align 8, !tbaa !13
  store i32 %1, ptr %6, align 4, !tbaa !23
  store ptr %2, ptr %7, align 8, !tbaa !4
  %8 = load ptr, ptr %5, align 8
  %9 = load i32, ptr %6, align 4, !tbaa !23
  %10 = call noundef i32 @_ZNK4toku3omtImmLb0EE4sizeEv(ptr noundef nonnull align 8 dereferenceable(24) %8)
  %11 = icmp uge i32 %9, %10
  br i1 %11, label %12, label %13

12:                                               ; preds = %3
  store i32 22, ptr %4, align 4
  br label %26

13:                                               ; preds = %3
  %14 = getelementptr inbounds nuw %"class.toku::omt", ptr %8, i32 0, i32 0
  %15 = load i8, ptr %14, align 8, !tbaa !19, !range !20, !noundef !21
  %16 = trunc i8 %15 to i1
  br i1 %16, label %17, label %20

17:                                               ; preds = %13
  %18 = load i32, ptr %6, align 4, !tbaa !23
  %19 = load ptr, ptr %7, align 8, !tbaa !4
  call void @_ZNK4toku3omtImmLb0EE20fetch_internal_arrayEjPm(ptr noundef nonnull align 8 dereferenceable(24) %8, i32 noundef %18, ptr noundef %19)
  br label %25

20:                                               ; preds = %13
  %21 = getelementptr inbounds nuw %"class.toku::omt", ptr %8, i32 0, i32 2
  %22 = getelementptr inbounds nuw %"struct.toku::omt<unsigned long>::omt_tree", ptr %21, i32 0, i32 0
  %23 = load i32, ptr %6, align 4, !tbaa !23
  %24 = load ptr, ptr %7, align 8, !tbaa !4
  call void @_ZNK4toku3omtImmLb0EE14fetch_internalERKNS_12omt_internal17subtree_templatedILb0EEEjPm(ptr noundef nonnull align 8 dereferenceable(24) %8, ptr noundef nonnull align 4 dereferenceable(4) %22, i32 noundef %23, ptr noundef %24)
  br label %25

25:                                               ; preds = %20, %17
  store i32 0, ptr %4, align 4
  br label %26

26:                                               ; preds = %25, %12
  %27 = load i32, ptr %4, align 4
  ret i32 %27
}

; Function Attrs: mustprogress uwtable
define noundef i64 @_ZNK4toku9txnid_set3getEj(ptr noundef nonnull align 8 dereferenceable(24) %0, i32 noundef %1) #1 align 2 {
  %3 = alloca i64, align 8
  %4 = alloca ptr, align 8
  %5 = alloca i32, align 4
  %6 = alloca i64, align 8
  %7 = alloca i32, align 4
  %8 = alloca i32, align 4
  store ptr %0, ptr %4, align 8, !tbaa !11
  store i32 %1, ptr %5, align 4, !tbaa !23
  %9 = load ptr, ptr %4, align 8
  call void @llvm.lifetime.start.p0(i64 8, ptr %6) #7
  call void @llvm.lifetime.start.p0(i64 4, ptr %7) #7
  %10 = getelementptr inbounds nuw %"class.toku::txnid_set", ptr %9, i32 0, i32 0
  %11 = load i32, ptr %5, align 4, !tbaa !23
  %12 = call noundef i32 @_ZNK4toku3omtImmLb0EE5fetchEjPm(ptr noundef nonnull align 8 dereferenceable(24) %10, i32 noundef %11, ptr noundef %6)
  store i32 %12, ptr %7, align 4, !tbaa !23
  %13 = load i32, ptr %7, align 4, !tbaa !23
  %14 = icmp eq i32 %13, 22
  br i1 %14, label %15, label %16

15:                                               ; preds = %2
  store i64 0, ptr %3, align 8
  store i32 1, ptr %8, align 4
  br label %18

16:                                               ; preds = %2
  %17 = load i64, ptr %6, align 8, !tbaa !9
  store i64 %17, ptr %3, align 8
  store i32 1, ptr %8, align 4
  br label %18

18:                                               ; preds = %16, %15
  call void @llvm.lifetime.end.p0(i64 4, ptr %7) #7
  call void @llvm.lifetime.end.p0(i64 8, ptr %6) #7
  %19 = load i64, ptr %3, align 8
  ret i64 %19
}