; Function Attrs: mustprogress nofree norecurse nosync nounwind willreturn memory(read, inaccessiblemem: none) uwtable
define noundef i64 @_ZNK4toku9txnid_set3getEj(ptr noundef nonnull readonly align 8 captures(none) dereferenceable(24) %0, i32 noundef %1) local_unnamed_addr #4 align 2 {
  %3 = load i8, ptr %0, align 8, !tbaa !8, !range !12, !noundef !13
  %4 = trunc nuw i8 %3 to i1
  br i1 %4, label %_ZNK4toku3omtImmLb0EE4sizeEv.exit.i, label %5

5:                                                ; preds = %2
  %6 = getelementptr inbounds nuw i8, ptr %0, i64 8
  %7 = load i32, ptr %6, align 8, !tbaa !16
  %8 = icmp eq i32 %7, -1
  br i1 %8, label %39, label %_ZNK4toku3omtImmLb0EE4sizeEv.exit.thread10.i

_ZNK4toku3omtImmLb0EE4sizeEv.exit.i:              ; preds = %2
  %9 = getelementptr inbounds nuw i8, ptr %0, i64 12
  %10 = load i32, ptr %9, align 4, !tbaa !14
  %.not.i = icmp ult i32 %1, %10
  br i1 %.not.i, label %16, label %39

_ZNK4toku3omtImmLb0EE4sizeEv.exit.thread10.i:     ; preds = %5
  %11 = getelementptr inbounds nuw i8, ptr %0, i64 16
  %12 = load ptr, ptr %11, align 8, !tbaa !14
  %13 = zext i32 %7 to i64
  %14 = getelementptr inbounds nuw %"class.toku::omt_internal::omt_node_templated", ptr %12, i64 %13, i32 1
  %15 = load i32, ptr %14, align 8, !tbaa !21
  %.not12.i = icmp ult i32 %1, %15
  br i1 %.not12.i, label %tailrecurse.outer.i.i, label %39

16:                                               ; preds = %_ZNK4toku3omtImmLb0EE4sizeEv.exit.i
  %17 = getelementptr inbounds nuw i8, ptr %0, i64 8
  %18 = getelementptr inbounds nuw i8, ptr %0, i64 16
  %19 = load ptr, ptr %18, align 8, !tbaa !14
  %20 = load i32, ptr %17, align 8, !tbaa !14
  %21 = add i32 %20, %1
  %22 = zext i32 %21 to i64
  %23 = getelementptr inbounds nuw i64, ptr %19, i64 %22
  br label %_ZNK4toku3omtImmLb0EE5fetchEjPm.exit

tailrecurse.outer.i.i:                            ; preds = %_ZNK4toku3omtImmLb0EE4sizeEv.exit.thread10.i, %35
  %.pre.i.i = phi i32 [ %.pre.i.pre.i, %35 ], [ %7, %_ZNK4toku3omtImmLb0EE4sizeEv.exit.thread10.i ]
  %.tr21.ph.i.i = phi i32 [ %38, %35 ], [ %1, %_ZNK4toku3omtImmLb0EE4sizeEv.exit.thread10.i ]
  br label %tailrecurse.i.i

tailrecurse.i.i:                                  ; preds = %_ZNK4toku3omtImmLb0EE7nweightERKNS_12omt_internal17subtree_templatedILb0EEE.exit.i.i, %tailrecurse.outer.i.i
  %24 = phi i32 [ %28, %_ZNK4toku3omtImmLb0EE7nweightERKNS_12omt_internal17subtree_templatedILb0EEE.exit.i.i ], [ %.pre.i.i, %tailrecurse.outer.i.i ]
  %25 = zext i32 %24 to i64
  %26 = getelementptr inbounds nuw %"class.toku::omt_internal::omt_node_templated", ptr %12, i64 %25
  %27 = getelementptr inbounds nuw i8, ptr %26, i64 12
  %28 = load i32, ptr %27, align 4, !tbaa !16
  %29 = icmp eq i32 %28, -1
  br i1 %29, label %_ZNK4toku3omtImmLb0EE7nweightERKNS_12omt_internal17subtree_templatedILb0EEE.exit.thread.i.i, label %_ZNK4toku3omtImmLb0EE7nweightERKNS_12omt_internal17subtree_templatedILb0EEE.exit.i.i

_ZNK4toku3omtImmLb0EE7nweightERKNS_12omt_internal17subtree_templatedILb0EEE.exit.i.i: ; preds = %tailrecurse.i.i
  %30 = zext i32 %28 to i64
  %31 = getelementptr inbounds nuw %"class.toku::omt_internal::omt_node_templated", ptr %12, i64 %30, i32 1
  %32 = load i32, ptr %31, align 8, !tbaa !21
  %33 = icmp ult i32 %.tr21.ph.i.i, %32
  br i1 %33, label %tailrecurse.i.i, label %_ZNK4toku3omtImmLb0EE7nweightERKNS_12omt_internal17subtree_templatedILb0EEE.exit.thread.i.i

_ZNK4toku3omtImmLb0EE7nweightERKNS_12omt_internal17subtree_templatedILb0EEE.exit.thread.i.i: ; preds = %_ZNK4toku3omtImmLb0EE7nweightERKNS_12omt_internal17subtree_templatedILb0EEE.exit.i.i, %tailrecurse.i.i
  %.0.i19.i.i = phi i32 [ %32, %_ZNK4toku3omtImmLb0EE7nweightERKNS_12omt_internal17subtree_templatedILb0EEE.exit.i.i ], [ 0, %tailrecurse.i.i ]
  %34 = icmp eq i32 %.tr21.ph.i.i, %.0.i19.i.i
  br i1 %34, label %_ZNK4toku3omtImmLb0EE5fetchEjPm.exit, label %35

35:                                               ; preds = %_ZNK4toku3omtImmLb0EE7nweightERKNS_12omt_internal17subtree_templatedILb0EEE.exit.thread.i.i
  %36 = getelementptr inbounds nuw i8, ptr %26, i64 16
  %37 = xor i32 %.0.i19.i.i, -1
  %38 = add i32 %.tr21.ph.i.i, %37
  %.pre.i.pre.i = load i32, ptr %36, align 4, !tbaa !16
  br label %tailrecurse.outer.i.i

_ZNK4toku3omtImmLb0EE5fetchEjPm.exit:             ; preds = %_ZNK4toku3omtImmLb0EE7nweightERKNS_12omt_internal17subtree_templatedILb0EEE.exit.thread.i.i, %16
  %.sink.in.i = phi ptr [ %23, %16 ], [ %26, %_ZNK4toku3omtImmLb0EE7nweightERKNS_12omt_internal17subtree_templatedILb0EEE.exit.thread.i.i ]
  %.sink.i = load i64, ptr %.sink.in.i, align 8, !tbaa !4
  br label %39

39:                                               ; preds = %5, %_ZNK4toku3omtImmLb0EE4sizeEv.exit.thread10.i, %_ZNK4toku3omtImmLb0EE4sizeEv.exit.i, %_ZNK4toku3omtImmLb0EE5fetchEjPm.exit
  %40 = phi i64 [ %.sink.i, %_ZNK4toku3omtImmLb0EE5fetchEjPm.exit ], [ 0, %_ZNK4toku3omtImmLb0EE4sizeEv.exit.i ], [ 0, %_ZNK4toku3omtImmLb0EE4sizeEv.exit.thread10.i ], [ 0, %5 ]
  ret i64 %40
}